Certificate:
    Data:
        Version: 3 (0x2)
        Serial Number:
            58:04:d5:33:6d:18:69:93:5b:2d:8b:31:3b:37:7e:91
        Signature Algorithm: sha256WithRSAEncryption
        Issuer: CN=kopikonfig.com
        Validity
            Not Before: Feb  3 03:52:05 2021 GMT
            Not After : Jan 19 03:52:05 2024 GMT
        Subject: CN=kopikonfig.com
        Subject Public Key Info:
            Public Key Algorithm: rsaEncryption
                RSA Public-Key: (2048 bit)
                Modulus:
                    00:ec:98:96:8a:4c:bf:af:93:76:4e:31:6a:97:4c:
                    ba:e6:06:17:c7:06:86:73:a0:4a:3d:6d:bd:ca:89:
                    77:10:c3:2e:cc:50:64:37:42:60:27:f7:a6:ea:ab:
                    84:33:b1:19:8c:49:32:a8:13:cd:9b:11:e9:5c:3b:
                    0f:fb:f5:78:13:15:90:3e:79:75:29:6a:65:87:d3:
                    6e:64:5a:3c:57:5b:49:32:07:12:33:7d:22:f5:2e:
                    13:2f:c3:1f:85:b9:20:41:83:66:d7:68:5d:45:54:
                    02:7c:94:51:1b:a4:55:9e:45:99:b5:f6:32:13:c1:
                    90:19:e7:31:df:93:df:4c:a0:5e:3c:8e:09:18:0c:
                    25:34:16:56:b4:0a:c7:94:df:4f:1b:8f:87:e6:e7:
                    fb:5c:02:e0:d1:32:ef:e7:d5:08:96:fd:39:59:92:
                    90:9c:a8:e1:8c:27:9e:e7:1c:f2:bb:51:4c:8f:eb:
                    99:b4:73:a0:8a:07:2b:0a:a4:4a:b1:7e:4c:06:c5:
                    23:c7:9b:19:c9:fc:2a:cd:96:69:5c:48:bc:83:44:
                    d8:0b:d8:9f:50:7d:04:47:76:a3:f2:ee:f3:6e:23:
                    aa:b0:9e:6d:0d:8f:05:d9:92:39:d5:01:70:d9:c1:
                    34:2d:b5:e9:d0:4a:5e:11:9e:56:eb:b2:09:20:f5:
                    da:35
                Exponent: 65537 (0x10001)
        X509v3 extensions:
            X509v3 Basic Constraints: 
                CA:FALSE
            X509v3 Subject Key Identifier: 
                2B:F6:CC:3A:3C:AD:9E:E5:06:EA:71:7E:B7:13:B8:1D:46:83:AA:31
            X509v3 Authority Key Identifier: 
                keyid:4C:E1:4E:B6:64:D7:D2:72:19:C2:AE:4D:D7:54:AF:FF:AC:AE:12:3F
                DirName:/CN=kopikonfig.com
                serial:65:F8:60:AF:61:46:CD:A3:E3:C7:06:14:5E:12:06:AB:B7:9F:D3:36

            X509v3 Extended Key Usage: 
                TLS Web Server Authentication
            X509v3 Key Usage: 
                Digital Signature, Key Encipherment
            X509v3 Subject Alternative Name: 
                DNS:kopikonfig.com
    Signature Algorithm: sha256WithRSAEncryption
         95:8e:10:d4:9a:57:17:20:e5:e9:9c:87:31:98:d3:61:8e:52:
         25:b3:1a:23:ac:9c:d2:72:ac:2e:04:9a:7e:9a:9f:e0:e1:da:
         36:d8:05:a3:5c:5b:bd:1d:aa:8e:e5:50:e8:c7:c5:6f:74:b9:
         7e:d7:c9:93:32:b4:ed:90:ab:f2:9c:fa:bf:62:c2:46:30:42:
         6e:37:17:82:11:f6:8d:90:38:fd:1c:bd:21:1f:8b:bd:5c:00:
         0a:78:06:01:4e:84:4a:c9:b5:c3:9f:b2:9e:ff:8f:b6:6f:95:
         87:8a:3f:ce:f4:91:d0:3e:ef:74:24:5b:f5:fe:91:b4:08:93:
         6e:10:67:e3:61:4b:83:97:91:da:9d:23:3f:06:d7:78:06:c0:
         46:2c:27:aa:8f:6f:9f:3c:60:d7:9b:96:02:e0:75:0e:d6:a9:
         54:a8:27:b4:62:b4:d5:01:27:30:47:15:87:f1:6b:7b:93:a3:
         3d:8c:da:ad:15:03:be:01:26:9b:88:cb:9b:80:9e:fe:71:b0:
         95:1c:1c:e3:3d:db:6f:76:46:c9:d4:6e:d4:28:92:cd:45:6b:
         e9:16:b5:e7:ec:7c:c8:35:ee:e1:ee:b6:1a:0a:b1:cf:44:e7:
         d0:4f:10:bd:5b:43:fb:2e:b6:98:d7:c7:f7:b0:3a:00:bd:cc:
         01:de:f5:7b
-----BEGIN CERTIFICATE-----
MIIDfTCCAmWgAwIBAgIQWATVM20YaZNbLYsxOzd+kTANBgkqhkiG9w0BAQsFADAZ
MRcwFQYDVQQDDA5rb3Bpa29uZmlnLmNvbTAeFw0yMTAyMDMwMzUyMDVaFw0yNDAx
MTkwMzUyMDVaMBkxFzAVBgNVBAMMDmtvcGlrb25maWcuY29tMIIBIjANBgkqhkiG
9w0BAQEFAAOCAQ8AMIIBCgKCAQEA7JiWiky/r5N2TjFql0y65gYXxwaGc6BKPW29
yol3EMMuzFBkN0JgJ/em6quEM7EZjEkyqBPNmxHpXDsP+/V4ExWQPnl1KWplh9Nu
ZFo8V1tJMgcSM30i9S4TL8MfhbkgQYNm12hdRVQCfJRRG6RVnkWZtfYyE8GQGecx
35PfTKBePI4JGAwlNBZWtArHlN9PG4+H5uf7XALg0TLv59UIlv05WZKQnKjhjCee
5xzyu1FMj+uZtHOgigcrCqRKsX5MBsUjx5sZyfwqzZZpXEi8g0TYC9ifUH0ER3aj
8u7zbiOqsJ5tDY8F2ZI51QFw2cE0LbXp0EpeEZ5W67IJIPXaNQIDAQABo4HAMIG9
MAkGA1UdEwQCMAAwHQYDVR0OBBYEFCv2zDo8rZ7lBupxfrcTuB1Gg6oxMFQGA1Ud
IwRNMEuAFEzhTrZk19JyGcKuTddUr/+srhI/oR2kGzAZMRcwFQYDVQQDDA5rb3Bp
a29uZmlnLmNvbYIUZfhgr2FGzaPjxwYUXhIGq7ef0zYwEwYDVR0lBAwwCgYIKwYB
BQUHAwEwCwYDVR0PBAQDAgWgMBkGA1UdEQQSMBCCDmtvcGlrb25maWcuY29tMA0G
CSqGSIb3DQEBCwUAA4IBAQCVjhDUmlcXIOXpnIcxmNNhjlIlsxojrJzScqwuBJp+
mp/g4do22AWjXFu9HaqO5VDox8VvdLl+18mTMrTtkKvynPq/YsJGMEJuNxeCEfaN
kDj9HL0hH4u9XAAKeAYBToRKybXDn7Ke/4+2b5WHij/O9JHQPu90JFv1/pG0CJNu
EGfjYUuDl5HanSM/Btd4BsBGLCeqj2+fPGDXm5YC4HUO1qlUqCe0YrTVAScwRxWH
8Wt7k6M9jNqtFQO+ASabiMubgJ7+cbCVHBzjPdtvdkbJ1G7UKJLNRWvpFrXn7HzI
Ne7h7rYaCrHPROfQTxC9W0P7LraY18f3sDoAvcwB3vV7
-----END CERTIFICATE-----
