Certificate:
    Data:
        Version: 3 (0x2)
        Serial Number:
            44:64:9f:a7:16:9a:e0:f1:f0:e6:7a:bd:20:2a:ac:1b
        Signature Algorithm: sha256WithRSAEncryption
        Issuer: CN=ChangeMe
        Validity
            Not Before: Feb  3 07:11:23 2021 GMT
            Not After : Feb  1 07:11:23 2031 GMT
        Subject: CN=jajal
        Subject Public Key Info:
            Public Key Algorithm: rsaEncryption
                RSA Public-Key: (2048 bit)
                Modulus:
                    00:e4:60:62:96:0a:bf:a1:5f:42:66:27:01:98:56:
                    c8:4a:b9:89:20:6f:19:96:aa:42:6d:83:7f:77:91:
                    f1:93:61:6b:ad:9c:7f:7e:a3:13:de:19:5f:a8:f5:
                    7c:1d:a8:d9:34:7e:db:e0:d6:2c:24:ee:6a:db:13:
                    84:40:55:cd:f1:c6:df:a5:db:48:11:c8:b6:d2:92:
                    f8:ec:cc:ec:f5:97:4b:06:d4:0d:89:8b:74:fc:3d:
                    dc:8b:64:c2:25:0f:13:2c:8a:9b:5a:56:fd:5d:e0:
                    ab:df:af:7b:7d:49:af:87:aa:4c:bc:0b:98:e8:50:
                    e5:2a:3c:46:fa:d6:b3:0e:8c:82:04:dc:f5:51:76:
                    af:e8:4d:e3:46:16:04:85:94:f6:64:76:eb:65:14:
                    ea:fe:f1:25:03:77:cb:8f:0d:77:19:db:b4:a2:f5:
                    40:dc:c1:a5:8b:cb:30:c4:f7:c3:ab:16:82:db:32:
                    af:89:55:af:12:bb:d8:2e:c6:1d:fc:50:90:78:9d:
                    82:5f:9e:c5:4a:75:6a:7a:59:85:ce:fc:4d:41:f3:
                    fc:d5:e0:09:55:2d:06:1c:1b:46:39:43:5f:89:2e:
                    98:ed:35:c7:55:66:49:a7:a9:0a:95:50:6b:fd:0b:
                    41:8b:6b:21:2b:e4:ac:f4:b3:61:fd:6b:98:f9:14:
                    fc:9b
                Exponent: 65537 (0x10001)
        X509v3 extensions:
            X509v3 Basic Constraints: 
                CA:FALSE
            X509v3 Subject Key Identifier: 
                50:45:54:E1:C5:BF:9E:2A:75:9F:0F:AA:02:3E:BA:7E:1C:8E:46:82
            X509v3 Authority Key Identifier: 
                keyid:8E:B3:7B:A1:40:8F:DB:8B:6C:7B:65:95:F2:24:3F:B5:C1:4F:4C:88
                DirName:/CN=ChangeMe
                serial:20:FB:DD:E6:15:4F:E3:1A:8F:9C:E9:81:05:E4:E6:72:54:7A:7B:60

            X509v3 Extended Key Usage: 
                TLS Web Client Authentication
            X509v3 Key Usage: 
                Digital Signature
    Signature Algorithm: sha256WithRSAEncryption
         17:d8:f0:86:bb:28:36:63:fd:7d:15:a8:74:2b:c9:68:2a:6d:
         76:ea:e8:c2:4f:9d:65:53:60:71:5b:55:8f:7c:7f:1c:b9:5e:
         dc:20:2e:b7:e5:ec:76:93:8d:aa:35:05:e1:b3:f8:4d:d9:9a:
         26:7f:8e:75:c9:cd:2b:ae:89:43:a3:7e:7d:e2:6d:46:c7:33:
         0d:ed:37:9f:4a:52:69:47:a3:fe:1f:0f:27:3c:a5:d0:9d:d4:
         52:0e:c7:ab:66:f7:e3:37:2b:b8:31:18:d7:77:23:71:73:b6:
         69:d3:96:b7:ad:4c:a5:cf:13:93:3a:b3:1f:6e:6b:01:05:96:
         cd:37:a3:e3:06:f9:de:6c:73:c3:e6:6c:e2:44:6c:ad:29:99:
         f0:d0:21:95:09:77:b8:b9:28:e1:5a:cf:4a:80:08:95:bc:f6:
         9d:20:71:67:5e:e8:5e:96:77:5c:8d:fc:76:5e:de:64:5c:25:
         14:f6:4a:55:a3:0f:77:c1:d8:65:1b:e3:9d:dd:ab:d5:dc:d0:
         c7:fd:64:0e:c2:20:00:cd:9e:66:52:10:9b:57:5f:4f:43:78:
         d3:76:51:11:71:1b:e4:8b:f6:79:bd:12:c1:a8:d8:c3:af:c5:
         a5:2d:d9:ee:44:d0:d4:27:a8:6f:6f:31:3d:65:81:73:a5:0b:
         3a:eb:ae:42
-----BEGIN CERTIFICATE-----
MIIDTTCCAjWgAwIBAgIQRGSfpxaa4PHw5nq9ICqsGzANBgkqhkiG9w0BAQsFADAT
MREwDwYDVQQDDAhDaGFuZ2VNZTAeFw0yMTAyMDMwNzExMjNaFw0zMTAyMDEwNzEx
MjNaMBAxDjAMBgNVBAMMBWphamFsMIIBIjANBgkqhkiG9w0BAQEFAAOCAQ8AMIIB
CgKCAQEA5GBilgq/oV9CZicBmFbISrmJIG8ZlqpCbYN/d5Hxk2FrrZx/fqMT3hlf
qPV8HajZNH7b4NYsJO5q2xOEQFXN8cbfpdtIEci20pL47Mzs9ZdLBtQNiYt0/D3c
i2TCJQ8TLIqbWlb9XeCr3697fUmvh6pMvAuY6FDlKjxG+tazDoyCBNz1UXav6E3j
RhYEhZT2ZHbrZRTq/vElA3fLjw13Gdu0ovVA3MGli8swxPfDqxaC2zKviVWvErvY
LsYd/FCQeJ2CX57FSnVqelmFzvxNQfP81eAJVS0GHBtGOUNfiS6Y7TXHVWZJp6kK
lVBr/QtBi2shK+Ss9LNh/WuY+RT8mwIDAQABo4GfMIGcMAkGA1UdEwQCMAAwHQYD
VR0OBBYEFFBFVOHFv54qdZ8PqgI+un4cjkaCME4GA1UdIwRHMEWAFI6ze6FAj9uL
bHtllfIkP7XBT0yIoRekFTATMREwDwYDVQQDDAhDaGFuZ2VNZYIUIPvd5hVP4xqP
nOmBBeTmclR6e2AwEwYDVR0lBAwwCgYIKwYBBQUHAwIwCwYDVR0PBAQDAgeAMA0G
CSqGSIb3DQEBCwUAA4IBAQAX2PCGuyg2Y/19Fah0K8loKm126ujCT51lU2BxW1WP
fH8cuV7cIC635ex2k42qNQXhs/hN2Zomf451yc0rrolDo3594m1GxzMN7TefSlJp
R6P+Hw8nPKXQndRSDserZvfjNyu4MRjXdyNxc7Zp05a3rUylzxOTOrMfbmsBBZbN
N6PjBvnebHPD5mziRGytKZnw0CGVCXe4uSjhWs9KgAiVvPadIHFnXuhelndcjfx2
Xt5kXCUU9kpVow93wdhlG+Od3avV3NDH/WQOwiAAzZ5mUhCbV19PQ3jTdlERcRvk
i/Z5vRLBqNjDr8WlLdnuRNDUJ6hvbzE9ZYFzpQs6665C
-----END CERTIFICATE-----
