Certificate:
    Data:
        Version: 3 (0x2)
        Serial Number:
            6a:a2:50:41:5d:bf:ac:a5:19:0a:0a:ce:12:55:5f:f8
        Signature Algorithm: sha256WithRSAEncryption
        Issuer: CN=ChangeMe
        Validity
            Not Before: Feb  3 06:54:17 2021 GMT
            Not After : Feb  1 06:54:17 2031 GMT
        Subject: CN=coba
        Subject Public Key Info:
            Public Key Algorithm: rsaEncryption
                RSA Public-Key: (2048 bit)
                Modulus:
                    00:f4:0e:3b:13:fc:02:89:01:75:14:dc:e3:c9:e4:
                    7d:cf:03:98:9e:f6:81:f5:bf:c8:ee:9a:d0:ec:05:
                    cd:03:79:20:cd:30:d3:15:42:e2:cc:f5:55:15:9b:
                    5f:11:b7:2c:07:12:7a:5a:12:e2:9d:cf:ff:58:bf:
                    81:f0:d4:15:f1:39:ef:44:8c:0d:1b:bf:a3:c6:1d:
                    0f:66:fa:8f:ab:7c:78:2e:ac:94:60:ab:3c:8d:23:
                    7b:18:3a:9e:c7:c4:92:07:f9:c1:dd:a8:8c:e9:2b:
                    76:ce:70:f8:f4:0c:1b:0a:0a:9c:fc:42:8c:e1:9b:
                    dc:94:a4:eb:0b:58:86:e8:68:49:73:56:62:d5:98:
                    4a:06:49:c6:fb:86:be:0c:52:74:ad:81:32:48:70:
                    24:8d:35:fc:79:c1:0b:96:0d:41:1f:39:1c:eb:40:
                    93:c9:35:83:4e:7f:00:65:b9:cc:6b:ce:86:46:dd:
                    cc:1d:11:d0:1e:6e:7e:a7:62:3f:da:85:eb:14:a3:
                    a2:30:53:ac:03:b7:5c:8b:ba:34:92:a8:26:cc:34:
                    fc:88:7b:cf:eb:43:73:d9:a2:52:b7:e2:a8:4d:33:
                    aa:6b:37:3a:b8:b2:ff:3a:26:17:1f:57:44:b0:52:
                    56:76:4c:18:96:06:57:2f:e7:d3:7d:33:c9:52:17:
                    7b:05
                Exponent: 65537 (0x10001)
        X509v3 extensions:
            X509v3 Basic Constraints: 
                CA:FALSE
            X509v3 Subject Key Identifier: 
                D8:F8:DD:A9:18:D8:7F:BE:C0:83:41:79:84:F9:53:D1:F8:A0:BB:ED
            X509v3 Authority Key Identifier: 
                keyid:8E:B3:7B:A1:40:8F:DB:8B:6C:7B:65:95:F2:24:3F:B5:C1:4F:4C:88
                DirName:/CN=ChangeMe
                serial:20:FB:DD:E6:15:4F:E3:1A:8F:9C:E9:81:05:E4:E6:72:54:7A:7B:60

            X509v3 Extended Key Usage: 
                TLS Web Client Authentication
            X509v3 Key Usage: 
                Digital Signature
    Signature Algorithm: sha256WithRSAEncryption
         69:29:4a:73:40:2b:60:8c:42:62:28:ef:67:e0:06:77:0d:2d:
         f8:ab:1b:cf:cd:70:16:54:7d:48:22:6e:37:72:56:f7:6c:b7:
         4c:0f:03:fb:94:7b:7e:15:90:da:46:f3:4b:d4:cd:a8:7e:00:
         04:cc:29:89:ad:7e:41:73:b9:49:87:52:4e:77:a6:a5:cb:68:
         9a:9a:e3:50:57:03:f7:7d:22:e5:42:f7:63:1d:b7:82:f1:2d:
         5d:a7:9c:2d:2b:80:0a:7e:5f:f2:4a:92:d4:f2:a8:92:ba:b2:
         16:0d:47:14:87:5e:dc:d3:11:b1:47:61:1d:06:7a:25:b8:9f:
         27:a7:e7:82:f6:74:5f:32:57:23:19:61:f3:2c:a8:e0:21:93:
         e3:dc:64:6b:32:9a:79:bd:d4:04:85:24:0e:8c:42:38:4d:8a:
         65:be:be:c0:fc:33:41:3d:0a:84:00:d5:30:c5:11:35:05:8f:
         49:f4:d7:13:b1:2e:6b:eb:21:50:d1:fd:9b:2d:f0:27:d1:44:
         d9:c2:b3:96:7d:d5:9c:01:f8:86:19:d9:db:3e:0a:12:d9:9a:
         7f:8d:9c:c6:8c:4a:c5:eb:56:62:b1:31:3c:70:ff:df:4b:26:
         8e:51:80:a7:ee:50:9b:55:0c:b0:3e:68:40:45:f7:d8:3b:db:
         33:a1:28:c4
-----BEGIN CERTIFICATE-----
MIIDTDCCAjSgAwIBAgIQaqJQQV2/rKUZCgrOElVf+DANBgkqhkiG9w0BAQsFADAT
MREwDwYDVQQDDAhDaGFuZ2VNZTAeFw0yMTAyMDMwNjU0MTdaFw0zMTAyMDEwNjU0
MTdaMA8xDTALBgNVBAMMBGNvYmEwggEiMA0GCSqGSIb3DQEBAQUAA4IBDwAwggEK
AoIBAQD0DjsT/AKJAXUU3OPJ5H3PA5ie9oH1v8jumtDsBc0DeSDNMNMVQuLM9VUV
m18RtywHEnpaEuKdz/9Yv4Hw1BXxOe9EjA0bv6PGHQ9m+o+rfHgurJRgqzyNI3sY
Op7HxJIH+cHdqIzpK3bOcPj0DBsKCpz8Qozhm9yUpOsLWIboaElzVmLVmEoGScb7
hr4MUnStgTJIcCSNNfx5wQuWDUEfORzrQJPJNYNOfwBlucxrzoZG3cwdEdAebn6n
Yj/ahesUo6IwU6wDt1yLujSSqCbMNPyIe8/rQ3PZolK34qhNM6prNzq4sv86Jhcf
V0SwUlZ2TBiWBlcv59N9M8lSF3sFAgMBAAGjgZ8wgZwwCQYDVR0TBAIwADAdBgNV
HQ4EFgQU2PjdqRjYf77Ag0F5hPlT0figu+0wTgYDVR0jBEcwRYAUjrN7oUCP24ts
e2WV8iQ/tcFPTIihF6QVMBMxETAPBgNVBAMMCENoYW5nZU1lghQg+93mFU/jGo+c
6YEF5OZyVHp7YDATBgNVHSUEDDAKBggrBgEFBQcDAjALBgNVHQ8EBAMCB4AwDQYJ
KoZIhvcNAQELBQADggEBAGkpSnNAK2CMQmIo72fgBncNLfirG8/NcBZUfUgibjdy
Vvdst0wPA/uUe34VkNpG80vUzah+AATMKYmtfkFzuUmHUk53pqXLaJqa41BXA/d9
IuVC92Mdt4LxLV2nnC0rgAp+X/JKktTyqJK6shYNRxSHXtzTEbFHYR0GeiW4nyen
54L2dF8yVyMZYfMsqOAhk+PcZGsymnm91ASFJA6MQjhNimW+vsD8M0E9CoQA1TDF
ETUFj0n01xOxLmvrIVDR/Zst8CfRRNnCs5Z91ZwB+IYZ2ds+ChLZmn+NnMaMSsXr
VmKxMTxw/99LJo5RgKfuUJtVDLA+aEBF99g72zOhKMQ=
-----END CERTIFICATE-----
