Certificate:
    Data:
        Version: 3 (0x2)
        Serial Number:
            8a:78:45:1e:1e:8f:90:1c:7b:1c:57:b1:61:29:fc:cd
        Signature Algorithm: sha256WithRSAEncryption
        Issuer: CN=ChangeMe
        Validity
            Not Before: Feb  3 07:04:05 2021 GMT
            Not After : Feb  1 07:04:05 2031 GMT
        Subject: CN=leptop
        Subject Public Key Info:
            Public Key Algorithm: rsaEncryption
                RSA Public-Key: (2048 bit)
                Modulus:
                    00:b2:f9:f8:c9:d7:74:a2:36:42:ce:b6:13:45:ec:
                    42:a0:7c:96:24:d2:5b:d6:1d:c3:43:10:13:e2:ea:
                    ee:59:09:39:26:ba:c6:46:7c:3a:78:ca:d3:a0:6e:
                    44:79:9b:66:26:f3:bf:23:d9:5c:c2:33:81:a2:17:
                    1a:d8:69:0e:ab:06:3b:0a:cc:e1:4c:60:a1:f1:3c:
                    1a:33:de:fe:1c:0d:9f:3e:e2:f5:c4:d2:6b:fb:da:
                    fc:96:be:58:9a:8b:62:79:a2:d0:2e:04:75:33:7d:
                    07:51:4f:68:2e:11:f5:5d:d1:b4:e8:e6:44:65:7b:
                    e1:da:ef:7f:cd:9f:73:b6:35:03:b2:df:30:b3:7b:
                    9d:fb:df:e3:e2:0e:01:22:12:a8:7b:b4:9b:2e:49:
                    d1:b4:7b:2c:23:5d:c8:80:1c:42:5b:0d:63:ea:50:
                    5d:16:1f:bd:21:94:fe:dc:3d:80:71:3f:b1:5d:68:
                    82:f7:f5:53:32:34:f4:b2:6c:d3:29:59:c1:a7:e9:
                    41:cc:18:0e:60:6d:80:34:c0:bb:9f:06:9d:86:09:
                    39:36:40:12:89:e0:c8:56:df:54:30:c7:b0:17:d7:
                    bd:a6:94:67:e4:30:ed:67:01:10:18:84:ea:e0:79:
                    df:16:f8:c0:b2:98:04:99:9f:e4:72:84:c8:42:82:
                    9f:35
                Exponent: 65537 (0x10001)
        X509v3 extensions:
            X509v3 Basic Constraints: 
                CA:FALSE
            X509v3 Subject Key Identifier: 
                DD:5C:4A:3E:51:A6:58:E5:9A:A5:3D:1A:70:D4:84:48:16:D6:F2:C2
            X509v3 Authority Key Identifier: 
                keyid:8E:B3:7B:A1:40:8F:DB:8B:6C:7B:65:95:F2:24:3F:B5:C1:4F:4C:88
                DirName:/CN=ChangeMe
                serial:20:FB:DD:E6:15:4F:E3:1A:8F:9C:E9:81:05:E4:E6:72:54:7A:7B:60

            X509v3 Extended Key Usage: 
                TLS Web Client Authentication
            X509v3 Key Usage: 
                Digital Signature
    Signature Algorithm: sha256WithRSAEncryption
         a7:9e:28:a3:d2:cf:dd:3b:06:76:85:ca:5f:79:43:43:60:2f:
         03:0a:dc:6a:e1:d7:93:2a:d5:95:3b:f6:e5:67:b0:1c:ce:2f:
         e7:20:5a:02:a1:f1:70:a6:55:57:b5:31:9e:60:51:25:65:9a:
         df:6f:ae:3b:10:fe:f1:cf:0b:c4:2f:21:97:2d:3e:0b:0a:9f:
         49:8e:49:9f:7a:7e:47:71:19:db:03:3d:67:b0:1c:aa:78:ad:
         7b:17:d7:b7:2a:1c:83:c3:53:be:65:9c:45:84:98:bf:69:34:
         21:03:bc:da:54:70:ca:51:ab:9f:48:01:81:e6:af:8b:00:b6:
         71:5d:94:8f:21:15:22:57:0f:5e:04:65:14:f4:87:10:6d:0f:
         c7:03:e5:2a:df:09:7f:ff:f7:4f:c0:49:69:54:fc:89:f1:3c:
         36:59:d0:8a:c1:68:ae:7a:85:7d:22:a6:5b:7a:ad:2f:8c:ce:
         2a:83:40:56:0a:01:4c:de:9e:e4:be:ba:43:d8:49:e9:f5:0f:
         c3:7b:f8:b0:a7:45:7e:7a:fb:a9:3f:5d:a6:42:16:12:1b:9a:
         54:7c:be:c5:0c:d9:b1:5a:30:5a:97:9c:0c:c9:59:bc:b3:70:
         68:1a:55:3b:61:d7:3b:4c:33:1f:e6:74:1f:e8:b1:9f:0c:7f:
         fd:07:60:53
-----BEGIN CERTIFICATE-----
MIIDTzCCAjegAwIBAgIRAIp4RR4ej5AcexxXsWEp/M0wDQYJKoZIhvcNAQELBQAw
EzERMA8GA1UEAwwIQ2hhbmdlTWUwHhcNMjEwMjAzMDcwNDA1WhcNMzEwMjAxMDcw
NDA1WjARMQ8wDQYDVQQDDAZsZXB0b3AwggEiMA0GCSqGSIb3DQEBAQUAA4IBDwAw
ggEKAoIBAQCy+fjJ13SiNkLOthNF7EKgfJYk0lvWHcNDEBPi6u5ZCTkmusZGfDp4
ytOgbkR5m2Ym878j2VzCM4GiFxrYaQ6rBjsKzOFMYKHxPBoz3v4cDZ8+4vXE0mv7
2vyWvliai2J5otAuBHUzfQdRT2guEfVd0bTo5kRle+Ha73/Nn3O2NQOy3zCze537
3+PiDgEiEqh7tJsuSdG0eywjXciAHEJbDWPqUF0WH70hlP7cPYBxP7FdaIL39VMy
NPSybNMpWcGn6UHMGA5gbYA0wLufBp2GCTk2QBKJ4MhW31Qwx7AX172mlGfkMO1n
ARAYhOrged8W+MCymASZn+RyhMhCgp81AgMBAAGjgZ8wgZwwCQYDVR0TBAIwADAd
BgNVHQ4EFgQU3VxKPlGmWOWapT0acNSESBbW8sIwTgYDVR0jBEcwRYAUjrN7oUCP
24tse2WV8iQ/tcFPTIihF6QVMBMxETAPBgNVBAMMCENoYW5nZU1lghQg+93mFU/j
Go+c6YEF5OZyVHp7YDATBgNVHSUEDDAKBggrBgEFBQcDAjALBgNVHQ8EBAMCB4Aw
DQYJKoZIhvcNAQELBQADggEBAKeeKKPSz907BnaFyl95Q0NgLwMK3Grh15Mq1ZU7
9uVnsBzOL+cgWgKh8XCmVVe1MZ5gUSVlmt9vrjsQ/vHPC8QvIZctPgsKn0mOSZ96
fkdxGdsDPWewHKp4rXsX17cqHIPDU75lnEWEmL9pNCEDvNpUcMpRq59IAYHmr4sA
tnFdlI8hFSJXD14EZRT0hxBtD8cD5SrfCX//90/ASWlU/InxPDZZ0IrBaK56hX0i
plt6rS+MziqDQFYKAUzenuS+ukPYSen1D8N7+LCnRX56+6k/XaZCFhIbmlR8vsUM
2bFaMFqXnAzJWbyzcGgaVTth1ztMMx/mdB/osZ8Mf/0HYFM=
-----END CERTIFICATE-----
