Certificate:
    Data:
        Version: 3 (0x2)
        Serial Number:
            d6:e7:ed:56:99:9b:93:cb:d8:25:ba:51:6f:6b:fe:12
        Signature Algorithm: sha256WithRSAEncryption
        Issuer: CN=ChangeMe
        Validity
            Not Before: Feb  3 07:12:36 2021 GMT
            Not After : Feb  1 07:12:36 2031 GMT
        Subject: CN=rosid
        Subject Public Key Info:
            Public Key Algorithm: rsaEncryption
                RSA Public-Key: (2048 bit)
                Modulus:
                    00:cb:b8:ad:ef:2a:61:f5:1a:f7:2e:ab:4f:81:8e:
                    f5:9a:88:ec:c4:5f:24:69:23:b8:20:a3:dc:83:87:
                    75:04:1f:cf:13:5f:66:b4:93:f7:26:be:b0:9a:50:
                    1a:92:1c:4f:93:75:ce:09:cb:b0:1c:c8:97:e0:0c:
                    4d:f9:9a:03:a4:04:34:da:29:f7:dd:24:a9:32:df:
                    21:05:fa:32:d8:fd:d0:97:94:24:ae:a8:c7:1d:71:
                    37:61:90:43:2e:af:a6:af:11:c0:51:69:3f:18:ed:
                    c0:4b:6a:41:fd:8c:b5:eb:4e:53:fd:0d:29:ef:bb:
                    2e:81:b2:66:d5:ba:c0:3b:c0:d6:b9:38:94:95:82:
                    da:11:45:6b:91:0b:b4:44:00:a3:51:88:7c:db:f8:
                    ba:aa:7e:d4:3d:b9:4d:d9:0e:84:3a:ca:3d:cb:6a:
                    bd:81:16:48:77:3a:fe:7b:72:4a:c8:6c:8a:75:1f:
                    7a:27:8e:67:de:78:75:81:b7:df:58:db:f2:15:0a:
                    75:f6:46:9d:63:11:f6:15:c3:ca:79:58:e5:ef:44:
                    9a:f6:96:df:be:be:5c:ea:9e:f0:3e:83:a2:31:5f:
                    58:3f:ae:c6:e4:f0:48:78:d3:99:db:33:8c:41:0c:
                    8b:4c:c9:79:e2:b3:89:72:27:f1:79:ce:8c:12:a5:
                    4c:03
                Exponent: 65537 (0x10001)
        X509v3 extensions:
            X509v3 Basic Constraints: 
                CA:FALSE
            X509v3 Subject Key Identifier: 
                47:AA:AA:C2:14:A7:62:D8:FD:2C:F3:1E:D7:18:38:4C:0A:88:4D:22
            X509v3 Authority Key Identifier: 
                keyid:8E:B3:7B:A1:40:8F:DB:8B:6C:7B:65:95:F2:24:3F:B5:C1:4F:4C:88
                DirName:/CN=ChangeMe
                serial:20:FB:DD:E6:15:4F:E3:1A:8F:9C:E9:81:05:E4:E6:72:54:7A:7B:60

            X509v3 Extended Key Usage: 
                TLS Web Client Authentication
            X509v3 Key Usage: 
                Digital Signature
    Signature Algorithm: sha256WithRSAEncryption
         62:5a:d6:ef:3a:08:66:7f:a3:1e:1b:41:b4:e3:bd:1c:a3:50:
         6a:5b:6b:76:25:b2:7e:93:ef:fe:17:b2:3b:3e:95:30:2a:68:
         35:a5:6e:11:00:4e:77:83:7e:d7:3b:43:87:38:dc:b0:c6:76:
         37:fe:b8:02:96:b1:c3:9f:50:5b:ad:98:96:01:e0:3b:da:35:
         d8:14:c1:34:33:e1:d4:3a:9b:c2:87:06:d6:a2:f1:65:5f:b1:
         d8:98:60:7f:b4:d8:74:20:9e:68:0e:71:51:b3:8d:fd:82:42:
         a0:d7:2b:04:4e:10:90:4f:86:98:99:c4:1c:04:86:69:d6:73:
         e7:7c:7d:4c:ae:c5:1c:25:93:b5:7f:01:b7:85:9a:65:18:46:
         18:49:85:f1:d5:96:16:80:f2:f9:1b:62:97:3e:55:5f:fa:0d:
         0d:29:eb:2e:40:b0:cb:58:66:cc:34:66:81:f1:14:bc:dd:04:
         f1:83:eb:ba:99:0a:78:2e:00:2e:ef:59:5d:6b:85:f3:72:a8:
         b6:5f:db:80:42:80:83:21:4b:bd:c9:f6:9c:dd:e1:cd:d9:b4:
         99:d1:b7:33:f5:91:f9:f8:fb:b2:2e:7b:44:1d:d3:b0:16:60:
         31:a4:53:a4:0d:56:07:8c:b2:0a:2b:98:44:52:b5:38:20:96:
         f1:d3:7c:f8
-----BEGIN CERTIFICATE-----
MIIDTjCCAjagAwIBAgIRANbn7VaZm5PL2CW6UW9r/hIwDQYJKoZIhvcNAQELBQAw
EzERMA8GA1UEAwwIQ2hhbmdlTWUwHhcNMjEwMjAzMDcxMjM2WhcNMzEwMjAxMDcx
MjM2WjAQMQ4wDAYDVQQDDAVyb3NpZDCCASIwDQYJKoZIhvcNAQEBBQADggEPADCC
AQoCggEBAMu4re8qYfUa9y6rT4GO9ZqI7MRfJGkjuCCj3IOHdQQfzxNfZrST9ya+
sJpQGpIcT5N1zgnLsBzIl+AMTfmaA6QENNop990kqTLfIQX6Mtj90JeUJK6oxx1x
N2GQQy6vpq8RwFFpPxjtwEtqQf2MtetOU/0NKe+7LoGyZtW6wDvA1rk4lJWC2hFF
a5ELtEQAo1GIfNv4uqp+1D25TdkOhDrKPctqvYEWSHc6/ntySshsinUfeieOZ954
dYG331jb8hUKdfZGnWMR9hXDynlY5e9EmvaW376+XOqe8D6DojFfWD+uxuTwSHjT
mdszjEEMi0zJeeKziXIn8XnOjBKlTAMCAwEAAaOBnzCBnDAJBgNVHRMEAjAAMB0G
A1UdDgQWBBRHqqrCFKdi2P0s8x7XGDhMCohNIjBOBgNVHSMERzBFgBSOs3uhQI/b
i2x7ZZXyJD+1wU9MiKEXpBUwEzERMA8GA1UEAwwIQ2hhbmdlTWWCFCD73eYVT+Ma
j5zpgQXk5nJUentgMBMGA1UdJQQMMAoGCCsGAQUFBwMCMAsGA1UdDwQEAwIHgDAN
BgkqhkiG9w0BAQsFAAOCAQEAYlrW7zoIZn+jHhtBtOO9HKNQaltrdiWyfpPv/hey
Oz6VMCpoNaVuEQBOd4N+1ztDhzjcsMZ2N/64Apaxw59QW62YlgHgO9o12BTBNDPh
1DqbwocG1qLxZV+x2Jhgf7TYdCCeaA5xUbON/YJCoNcrBE4QkE+GmJnEHASGadZz
53x9TK7FHCWTtX8Bt4WaZRhGGEmF8dWWFoDy+Rtilz5VX/oNDSnrLkCwy1hmzDRm
gfEUvN0E8YPrupkKeC4ALu9ZXWuF83Kotl/bgEKAgyFLvcn2nN3hzdm0mdG3M/WR
+fj7si57RB3TsBZgMaRTpA1WB4yyCiuYRFK1OCCW8dN8+A==
-----END CERTIFICATE-----
