Certificate:
    Data:
        Version: 3 (0x2)
        Serial Number:
            ff:9b:eb:a4:37:7d:f7:2e:c9:b4:32:d4:fb:15:b0:d2
        Signature Algorithm: sha256WithRSAEncryption
        Issuer: CN=ChangeMe
        Validity
            Not Before: Feb  3 07:19:15 2021 GMT
            Not After : Feb  1 07:19:15 2031 GMT
        Subject: CN=rumah
        Subject Public Key Info:
            Public Key Algorithm: rsaEncryption
                RSA Public-Key: (2048 bit)
                Modulus:
                    00:b0:17:40:55:2c:37:65:11:58:41:c1:52:0b:a8:
                    87:4c:c2:3b:5d:23:7c:03:f2:e2:eb:eb:8b:37:cd:
                    b3:7b:84:cb:a2:f5:6b:1a:87:da:6d:20:b7:18:13:
                    db:7c:41:11:c1:eb:cb:4c:94:43:26:12:ff:18:9f:
                    63:5e:25:8d:a1:8e:e7:40:7e:68:42:ba:5c:a3:b7:
                    3a:5b:7d:a0:35:df:e5:4d:7c:de:4e:cf:73:c0:ca:
                    e7:e7:b6:c6:71:7c:0b:be:40:9d:cb:69:69:c5:5d:
                    d0:8e:9d:df:fc:65:38:cb:2e:04:b8:13:df:ea:74:
                    cd:23:a0:90:c1:02:5b:93:55:ac:fa:53:a5:cd:03:
                    d4:32:44:6f:f6:38:39:af:bc:b9:5e:b4:cf:a1:c2:
                    a6:54:15:47:11:11:de:4c:ff:af:39:14:c5:01:15:
                    a8:f0:fc:72:1e:05:20:07:6d:b0:8e:8b:f0:11:5a:
                    35:de:cf:f7:85:7b:22:d9:2f:4d:b8:dc:ca:c0:fb:
                    db:2b:83:51:24:62:8d:b7:05:6b:27:ac:f8:fb:3d:
                    59:a9:28:77:e4:45:dd:55:a8:d4:1f:bb:56:91:04:
                    50:88:23:cc:3d:ed:85:b9:5e:ee:cc:d6:3a:73:df:
                    3f:9b:dc:82:7e:9d:98:a9:44:d8:56:61:c7:40:9b:
                    76:23
                Exponent: 65537 (0x10001)
        X509v3 extensions:
            X509v3 Basic Constraints: 
                CA:FALSE
            X509v3 Subject Key Identifier: 
                6F:B5:DA:E6:DE:09:F4:9E:49:CE:29:BC:BF:75:D3:79:9C:0E:A6:23
            X509v3 Authority Key Identifier: 
                keyid:8E:B3:7B:A1:40:8F:DB:8B:6C:7B:65:95:F2:24:3F:B5:C1:4F:4C:88
                DirName:/CN=ChangeMe
                serial:20:FB:DD:E6:15:4F:E3:1A:8F:9C:E9:81:05:E4:E6:72:54:7A:7B:60

            X509v3 Extended Key Usage: 
                TLS Web Client Authentication
            X509v3 Key Usage: 
                Digital Signature
    Signature Algorithm: sha256WithRSAEncryption
         84:e0:24:40:94:99:2e:af:af:36:dd:6f:c6:ea:bf:b1:bc:94:
         18:70:d8:ec:fc:8a:13:2f:99:8e:0a:3e:4c:68:36:bb:98:71:
         8b:46:34:bf:d3:69:d7:f4:ff:ec:80:f6:ca:5f:eb:7f:47:18:
         0a:64:7d:54:2a:fc:93:90:76:68:3c:16:fe:ea:16:73:b1:97:
         17:1f:4e:61:6f:4c:0b:6b:a4:33:92:d0:10:e6:35:ef:c2:fa:
         97:73:8e:0b:2f:4a:9a:1a:d0:13:60:3f:2b:61:b9:d9:7a:d7:
         f5:83:a8:b5:11:ac:a7:8f:36:e0:be:62:be:51:62:f2:81:16:
         9d:02:92:3d:33:e0:9b:dc:89:d5:36:a8:c7:c6:f3:99:70:b9:
         bd:7b:2f:57:f5:fe:66:8b:fb:a7:12:ee:d9:28:31:1e:0f:16:
         fd:8c:98:8c:d1:83:d2:6c:ba:d6:e2:8d:df:89:2e:dc:0b:5e:
         e1:f6:fe:bf:89:ca:cb:c7:a6:e0:c4:58:de:87:87:3a:b9:6a:
         88:f5:44:9a:0b:6c:23:3a:34:2a:a0:bc:a9:c2:cc:e2:85:1f:
         d8:cc:4e:61:0b:d1:43:4e:0e:dc:20:5a:81:cd:2e:f0:a0:69:
         2f:63:e6:34:3d:94:7a:36:2e:ce:a1:dc:75:c2:8c:4e:f5:72:
         ca:f1:9f:ca
-----BEGIN CERTIFICATE-----
MIIDTjCCAjagAwIBAgIRAP+b66Q3ffcuybQy1PsVsNIwDQYJKoZIhvcNAQELBQAw
EzERMA8GA1UEAwwIQ2hhbmdlTWUwHhcNMjEwMjAzMDcxOTE1WhcNMzEwMjAxMDcx
OTE1WjAQMQ4wDAYDVQQDDAVydW1haDCCASIwDQYJKoZIhvcNAQEBBQADggEPADCC
AQoCggEBALAXQFUsN2URWEHBUguoh0zCO10jfAPy4uvrizfNs3uEy6L1axqH2m0g
txgT23xBEcHry0yUQyYS/xifY14ljaGO50B+aEK6XKO3Olt9oDXf5U183k7Pc8DK
5+e2xnF8C75AnctpacVd0I6d3/xlOMsuBLgT3+p0zSOgkMECW5NVrPpTpc0D1DJE
b/Y4Oa+8uV60z6HCplQVRxER3kz/rzkUxQEVqPD8ch4FIAdtsI6L8BFaNd7P94V7
ItkvTbjcysD72yuDUSRijbcFayes+Ps9Wakod+RF3VWo1B+7VpEEUIgjzD3thble
7szWOnPfP5vcgn6dmKlE2FZhx0CbdiMCAwEAAaOBnzCBnDAJBgNVHRMEAjAAMB0G
A1UdDgQWBBRvtdrm3gn0nknOKby/ddN5nA6mIzBOBgNVHSMERzBFgBSOs3uhQI/b
i2x7ZZXyJD+1wU9MiKEXpBUwEzERMA8GA1UEAwwIQ2hhbmdlTWWCFCD73eYVT+Ma
j5zpgQXk5nJUentgMBMGA1UdJQQMMAoGCCsGAQUFBwMCMAsGA1UdDwQEAwIHgDAN
BgkqhkiG9w0BAQsFAAOCAQEAhOAkQJSZLq+vNt1vxuq/sbyUGHDY7PyKEy+Zjgo+
TGg2u5hxi0Y0v9Np1/T/7ID2yl/rf0cYCmR9VCr8k5B2aDwW/uoWc7GXFx9OYW9M
C2ukM5LQEOY178L6l3OOCy9KmhrQE2A/K2G52XrX9YOotRGsp4824L5ivlFi8oEW
nQKSPTPgm9yJ1Taox8bzmXC5vXsvV/X+Zov7pxLu2SgxHg8W/YyYjNGD0my61uKN
34ku3Ate4fb+v4nKy8em4MRY3oeHOrlqiPVEmgtsIzo0KqC8qcLM4oUf2MxOYQvR
Q04O3CBagc0u8KBpL2PmND2UejYuzqHcdcKMTvVyyvGfyg==
-----END CERTIFICATE-----
