Certificate:
    Data:
        Version: 3 (0x2)
        Serial Number:
            1c:3f:6c:84:b9:e7:7e:94:d3:d4:b1:02:6c:a6:3a:e0
        Signature Algorithm: sha256WithRSAEncryption
        Issuer: CN=kopikonfig.com
        Validity
            Not Before: Feb  3 06:06:36 2021 GMT
            Not After : Jan 19 06:06:36 2024 GMT
        Subject: CN=cobaok
        Subject Public Key Info:
            Public Key Algorithm: rsaEncryption
                RSA Public-Key: (2048 bit)
                Modulus:
                    00:e1:28:0c:d3:97:ed:0f:58:31:26:09:c4:ca:42:
                    c5:84:23:9a:4d:c2:46:91:cb:58:4d:d3:0f:5c:6c:
                    cf:a1:04:b9:bc:45:fe:aa:7c:c3:db:80:9b:90:68:
                    67:a5:dc:f7:3a:77:9e:3f:a0:d5:b3:ee:72:5e:b0:
                    32:4b:5e:23:d6:d7:2d:42:f8:5c:56:56:86:6b:e4:
                    61:71:ae:58:d0:f0:82:30:bb:af:d6:52:a2:68:45:
                    cb:11:4e:ec:32:bd:2e:d5:dd:2b:f3:09:57:57:2f:
                    77:cc:ed:87:11:93:87:ec:a5:15:3a:31:b4:89:83:
                    63:a9:4a:95:c3:21:ea:b1:42:e0:cb:9e:16:2e:d5:
                    0c:07:b4:75:f7:2e:1f:7d:ad:cf:23:41:c6:e0:c6:
                    86:eb:e7:eb:38:29:ba:11:64:ff:e8:05:b3:82:d9:
                    dc:ef:2f:59:93:98:e2:8f:11:80:1f:74:5e:e1:47:
                    dc:4f:db:d8:08:77:b1:57:51:35:c8:38:54:85:c0:
                    cf:6a:64:9d:bf:69:09:dc:c3:69:6b:ad:ae:f2:7e:
                    4b:9a:11:2f:95:a7:bb:9f:72:6b:24:3b:24:fc:2c:
                    de:6c:cc:1c:f7:f3:6e:85:4b:90:d0:aa:12:18:18:
                    5b:4e:c0:18:70:ec:f4:26:be:ef:65:24:26:b9:03:
                    2a:c9
                Exponent: 65537 (0x10001)
        X509v3 extensions:
            X509v3 Basic Constraints: 
                CA:FALSE
            X509v3 Subject Key Identifier: 
                36:39:29:C6:CA:60:7C:BA:58:5C:FD:77:27:AD:A3:66:67:2E:C0:DA
            X509v3 Authority Key Identifier: 
                keyid:4C:E1:4E:B6:64:D7:D2:72:19:C2:AE:4D:D7:54:AF:FF:AC:AE:12:3F
                DirName:/CN=kopikonfig.com
                serial:65:F8:60:AF:61:46:CD:A3:E3:C7:06:14:5E:12:06:AB:B7:9F:D3:36

            X509v3 Extended Key Usage: 
                TLS Web Client Authentication
            X509v3 Key Usage: 
                Digital Signature
    Signature Algorithm: sha256WithRSAEncryption
         d0:14:b9:ca:ae:48:e9:ec:19:67:26:4f:15:65:3f:db:97:3a:
         d2:a5:5e:bf:56:31:1f:d1:8c:81:b9:31:b7:3b:9a:31:13:90:
         ce:42:9b:96:73:7e:65:b4:b7:35:dd:99:34:a8:90:07:aa:36:
         04:8d:b3:bb:f8:da:d5:eb:63:49:49:ad:63:67:54:53:56:98:
         e5:43:11:09:b6:8f:11:b6:c0:b7:15:9f:67:63:3c:41:34:72:
         2a:61:7a:28:69:f1:7b:2a:4d:ed:b4:fd:9d:71:61:ee:7e:17:
         18:0a:f2:ab:12:e0:7c:f9:cc:0d:37:59:d9:7a:8a:88:9f:3c:
         98:c9:31:9f:d7:4b:4f:06:45:ad:95:7b:53:4f:46:b1:91:55:
         5c:6c:5c:55:c5:41:ed:36:b8:94:68:c1:3e:10:4c:e9:22:0b:
         a4:5e:35:f4:e8:5e:ba:c4:e1:e0:3b:87:89:c1:07:13:08:b1:
         f6:c8:64:11:c9:66:f7:58:f9:e4:e2:b3:e2:12:19:bd:49:3e:
         06:06:55:a8:86:6c:8e:34:87:a1:9a:2e:0b:17:d7:f6:0c:4e:
         1d:b8:82:8b:92:1e:c2:c4:9a:2f:e3:7d:76:06:9f:72:3b:15:
         67:a6:3b:e2:83:e1:8c:b8:93:9f:57:46:47:31:a1:1e:c5:c0:
         4b:48:f4:ca
-----BEGIN CERTIFICATE-----
MIIDWjCCAkKgAwIBAgIQHD9shLnnfpTT1LECbKY64DANBgkqhkiG9w0BAQsFADAZ
MRcwFQYDVQQDDA5rb3Bpa29uZmlnLmNvbTAeFw0yMTAyMDMwNjA2MzZaFw0yNDAx
MTkwNjA2MzZaMBExDzANBgNVBAMMBmNvYmFvazCCASIwDQYJKoZIhvcNAQEBBQAD
ggEPADCCAQoCggEBAOEoDNOX7Q9YMSYJxMpCxYQjmk3CRpHLWE3TD1xsz6EEubxF
/qp8w9uAm5BoZ6Xc9zp3nj+g1bPucl6wMkteI9bXLUL4XFZWhmvkYXGuWNDwgjC7
r9ZSomhFyxFO7DK9LtXdK/MJV1cvd8zthxGTh+ylFToxtImDY6lKlcMh6rFC4Mue
Fi7VDAe0dfcuH32tzyNBxuDGhuvn6zgpuhFk/+gFs4LZ3O8vWZOY4o8RgB90XuFH
3E/b2Ah3sVdRNcg4VIXAz2pknb9pCdzDaWutrvJ+S5oRL5Wnu59yayQ7JPws3mzM
HPfzboVLkNCqEhgYW07AGHDs9Ca+72UkJrkDKskCAwEAAaOBpTCBojAJBgNVHRME
AjAAMB0GA1UdDgQWBBQ2OSnGymB8ulhc/XcnraNmZy7A2jBUBgNVHSMETTBLgBRM
4U62ZNfSchnCrk3XVK//rK4SP6EdpBswGTEXMBUGA1UEAwwOa29waWtvbmZpZy5j
b22CFGX4YK9hRs2j48cGFF4SBqu3n9M2MBMGA1UdJQQMMAoGCCsGAQUFBwMCMAsG
A1UdDwQEAwIHgDANBgkqhkiG9w0BAQsFAAOCAQEA0BS5yq5I6ewZZyZPFWU/25c6
0qVev1YxH9GMgbkxtzuaMROQzkKblnN+ZbS3Nd2ZNKiQB6o2BI2zu/ja1etjSUmt
Y2dUU1aY5UMRCbaPEbbAtxWfZ2M8QTRyKmF6KGnxeypN7bT9nXFh7n4XGAryqxLg
fPnMDTdZ2XqKiJ88mMkxn9dLTwZFrZV7U09GsZFVXGxcVcVB7Ta4lGjBPhBM6SIL
pF419OheusTh4DuHicEHEwix9shkEclm91j55OKz4hIZvUk+BgZVqIZsjjSHoZou
CxfX9gxOHbiCi5IewsSaL+N9dgafcjsVZ6Y74oPhjLiTn1dGRzGhHsXAS0j0yg==
-----END CERTIFICATE-----
