Certificate:
    Data:
        Version: 3 (0x2)
        Serial Number:
            27:64:56:68:55:43:13:12:9d:d9:07:4d:4a:d3:1c:5c
        Signature Algorithm: sha256WithRSAEncryption
        Issuer: CN=kopikonfig.com
        Validity
            Not Before: Feb  3 03:52:46 2021 GMT
            Not After : Jan 19 03:52:46 2024 GMT
        Subject: CN=mikrotik
        Subject Public Key Info:
            Public Key Algorithm: rsaEncryption
                RSA Public-Key: (2048 bit)
                Modulus:
                    00:c0:a3:f5:e2:f1:1d:11:11:af:69:6c:55:21:4a:
                    6c:96:98:89:a0:89:0d:72:ff:38:18:6a:c7:98:39:
                    92:1f:66:63:9c:d7:76:15:68:12:f7:95:0e:e9:ba:
                    49:9d:1f:30:93:56:11:9e:d0:a5:5f:a0:21:54:39:
                    03:62:57:40:ca:30:17:48:4d:9b:30:81:77:14:c7:
                    00:ea:68:48:f6:fa:ba:47:30:cf:c2:06:48:90:dc:
                    5f:d1:88:89:f6:08:72:ff:bd:5b:d6:97:d3:8c:11:
                    c5:35:46:e3:9d:d7:6a:74:97:b3:83:89:99:4f:42:
                    d9:da:ed:25:a6:cd:bf:4e:3c:6b:15:5b:1e:75:7c:
                    38:f2:bc:03:6c:b6:07:ba:df:3d:b2:c6:f8:06:a0:
                    b7:41:a5:c2:ab:9f:a7:e0:c3:37:50:df:c1:53:ea:
                    0f:c2:6c:73:17:43:0c:ea:00:64:58:92:48:6a:7b:
                    dc:11:b5:36:b2:5b:be:6e:1d:ec:82:a4:40:4a:9e:
                    38:de:1d:68:c5:c3:50:10:57:86:f3:65:f7:20:76:
                    45:67:14:d6:e2:66:03:18:22:dd:c6:ee:ac:32:46:
                    1a:13:63:c1:a3:0e:ec:48:1d:71:dc:d7:01:f7:1d:
                    cd:1c:19:84:17:bd:f0:11:f6:01:cf:14:5b:04:da:
                    cb:33
                Exponent: 65537 (0x10001)
        X509v3 extensions:
            X509v3 Basic Constraints: 
                CA:FALSE
            X509v3 Subject Key Identifier: 
                D3:02:D5:94:FC:27:5D:86:55:8A:EE:2E:F1:49:70:0F:CB:65:E4:5A
            X509v3 Authority Key Identifier: 
                keyid:4C:E1:4E:B6:64:D7:D2:72:19:C2:AE:4D:D7:54:AF:FF:AC:AE:12:3F
                DirName:/CN=kopikonfig.com
                serial:65:F8:60:AF:61:46:CD:A3:E3:C7:06:14:5E:12:06:AB:B7:9F:D3:36

            X509v3 Extended Key Usage: 
                TLS Web Client Authentication
            X509v3 Key Usage: 
                Digital Signature
    Signature Algorithm: sha256WithRSAEncryption
         05:57:51:81:2f:bc:09:75:38:04:99:e9:1c:9f:f6:08:3c:a4:
         87:f0:73:a8:71:da:43:76:16:d3:19:0a:94:0a:34:6e:cd:c1:
         4d:c3:f0:c5:8d:60:71:2b:bc:d4:2e:49:18:48:b0:cc:28:57:
         a3:75:f0:67:e3:61:62:36:db:de:32:04:53:5e:9b:b4:ea:da:
         e3:f0:85:ce:f8:1b:4c:e4:71:d3:60:04:3e:92:d7:06:6f:7c:
         4e:37:b7:20:54:e8:e1:72:2c:c7:ae:bb:5d:0b:30:61:ba:6f:
         91:ec:3f:cb:87:d3:01:f8:a2:bd:5f:a2:11:d8:ca:24:30:4a:
         26:2c:30:68:a6:18:cb:21:af:b0:e8:4e:bc:61:5a:4d:4f:c5:
         dd:94:92:e4:9d:c0:87:31:88:02:90:84:6a:ec:29:fa:b7:23:
         30:19:f4:6d:e9:c3:60:c5:5f:31:23:19:87:ea:18:3b:de:08:
         fa:50:ec:9e:bb:68:70:42:55:3a:f9:39:00:44:58:c7:4d:24:
         ca:96:18:7c:2b:d7:1f:09:02:22:3c:b0:b3:bf:d7:79:c4:8b:
         24:eb:77:0c:40:6a:16:0e:94:92:e8:cf:d6:eb:61:c8:c4:28:
         4a:ed:f2:68:0f:27:14:19:21:63:98:50:bd:99:13:a5:61:55:
         1a:3a:ea:b6
-----BEGIN CERTIFICATE-----
MIIDXDCCAkSgAwIBAgIQJ2RWaFVDExKd2QdNStMcXDANBgkqhkiG9w0BAQsFADAZ
MRcwFQYDVQQDDA5rb3Bpa29uZmlnLmNvbTAeFw0yMTAyMDMwMzUyNDZaFw0yNDAx
MTkwMzUyNDZaMBMxETAPBgNVBAMMCG1pa3JvdGlrMIIBIjANBgkqhkiG9w0BAQEF
AAOCAQ8AMIIBCgKCAQEAwKP14vEdERGvaWxVIUpslpiJoIkNcv84GGrHmDmSH2Zj
nNd2FWgS95UO6bpJnR8wk1YRntClX6AhVDkDYldAyjAXSE2bMIF3FMcA6mhI9vq6
RzDPwgZIkNxf0YiJ9ghy/71b1pfTjBHFNUbjnddqdJezg4mZT0LZ2u0lps2/Tjxr
FVsedXw48rwDbLYHut89ssb4BqC3QaXCq5+n4MM3UN/BU+oPwmxzF0MM6gBkWJJI
anvcEbU2slu+bh3sgqRASp443h1oxcNQEFeG82X3IHZFZxTW4mYDGCLdxu6sMkYa
E2PBow7sSB1x3NcB9x3NHBmEF73wEfYBzxRbBNrLMwIDAQABo4GlMIGiMAkGA1Ud
EwQCMAAwHQYDVR0OBBYEFNMC1ZT8J12GVYruLvFJcA/LZeRaMFQGA1UdIwRNMEuA
FEzhTrZk19JyGcKuTddUr/+srhI/oR2kGzAZMRcwFQYDVQQDDA5rb3Bpa29uZmln
LmNvbYIUZfhgr2FGzaPjxwYUXhIGq7ef0zYwEwYDVR0lBAwwCgYIKwYBBQUHAwIw
CwYDVR0PBAQDAgeAMA0GCSqGSIb3DQEBCwUAA4IBAQAFV1GBL7wJdTgEmekcn/YI
PKSH8HOocdpDdhbTGQqUCjRuzcFNw/DFjWBxK7zULkkYSLDMKFejdfBn42FiNtve
MgRTXpu06trj8IXO+BtM5HHTYAQ+ktcGb3xON7cgVOjhcizHrrtdCzBhum+R7D/L
h9MB+KK9X6IR2MokMEomLDBophjLIa+w6E68YVpNT8XdlJLkncCHMYgCkIRq7Cn6
tyMwGfRt6cNgxV8xIxmH6hg73gj6UOyeu2hwQlU6+TkARFjHTSTKlhh8K9cfCQIi
PLCzv9d5xIsk63cMQGoWDpSS6M/W62HIxChK7fJoDycUGSFjmFC9mROlYVUaOuq2
-----END CERTIFICATE-----
