Certificate:
    Data:
        Version: 3 (0x2)
        Serial Number:
            68:c9:c4:e1:73:c5:20:71:65:1f:ec:9c:c5:62:a2:87
        Signature Algorithm: sha256WithRSAEncryption
        Issuer: CN=kopikonfig.com
        Validity
            Not Before: Feb  3 05:48:57 2021 GMT
            Not After : Jan 19 05:48:57 2024 GMT
        Subject: CN=respi
        Subject Public Key Info:
            Public Key Algorithm: rsaEncryption
                RSA Public-Key: (2048 bit)
                Modulus:
                    00:a5:6e:2f:98:ea:89:e4:79:ea:ac:87:f8:e0:39:
                    95:83:94:50:b4:ea:6f:4b:fd:cc:3b:08:b9:e6:66:
                    f7:49:67:76:90:00:c9:7c:d8:7d:73:bd:33:af:41:
                    2b:87:d8:40:91:05:32:92:1f:68:1a:5a:47:5f:5b:
                    7f:3e:ab:7a:9a:07:c1:13:db:4a:52:dc:98:a7:32:
                    10:8b:15:f2:37:13:a4:df:8a:03:cb:11:d6:2e:4f:
                    a5:1c:0b:e3:fa:9f:00:46:2f:d7:52:da:8d:0d:38:
                    12:73:c3:c5:fc:e9:4f:5d:a2:0f:fc:3d:58:6c:ac:
                    8e:78:85:60:14:5d:84:c1:b1:03:0a:8c:ef:7f:9d:
                    c5:72:4c:d9:13:3a:d0:4d:9f:79:ec:fd:16:e0:27:
                    5a:4a:f8:23:68:aa:e2:0b:3c:46:d5:38:70:c3:9b:
                    d3:c0:f3:f8:d1:4f:f7:75:6a:5d:8f:ae:a4:03:aa:
                    87:b9:12:5b:27:59:63:d9:1c:31:fb:70:64:85:68:
                    e7:a4:f5:dd:c8:ff:f6:09:a4:39:4d:3e:38:f8:b8:
                    2c:9f:37:e5:de:35:ea:da:9f:8d:a4:99:ad:b2:3e:
                    1c:24:18:4a:dd:28:17:44:39:78:ea:58:2a:3b:11:
                    84:7d:c4:2b:d6:39:e4:b6:b8:db:ff:a8:43:de:dd:
                    4c:ad
                Exponent: 65537 (0x10001)
        X509v3 extensions:
            X509v3 Basic Constraints: 
                CA:FALSE
            X509v3 Subject Key Identifier: 
                B1:40:4F:83:6C:6D:00:F4:D4:57:E2:6F:E4:C4:CB:3F:13:AC:7B:C1
            X509v3 Authority Key Identifier: 
                keyid:4C:E1:4E:B6:64:D7:D2:72:19:C2:AE:4D:D7:54:AF:FF:AC:AE:12:3F
                DirName:/CN=kopikonfig.com
                serial:65:F8:60:AF:61:46:CD:A3:E3:C7:06:14:5E:12:06:AB:B7:9F:D3:36

            X509v3 Extended Key Usage: 
                TLS Web Client Authentication
            X509v3 Key Usage: 
                Digital Signature
    Signature Algorithm: sha256WithRSAEncryption
         07:e1:a7:dd:f5:13:89:14:72:94:e8:c6:a9:9b:fc:a4:e7:00:
         a5:ed:db:47:fa:76:42:eb:c3:76:ee:19:2f:d3:1a:40:67:69:
         aa:25:c3:16:18:8b:b1:dc:6b:ec:6d:9d:0b:35:17:36:6f:35:
         c9:ab:18:5f:24:7c:b7:6d:f7:1b:82:8b:08:bd:9d:13:12:58:
         df:e8:92:93:aa:cf:9f:67:cb:5c:16:00:07:d2:8c:88:46:51:
         30:66:61:c4:b8:93:a4:79:7a:e8:0c:4e:f9:82:a1:20:05:98:
         c4:31:9c:9b:2a:65:39:37:6b:46:26:06:e5:96:f8:70:f4:64:
         14:d6:93:ee:da:9c:f1:78:93:4c:59:6f:b8:5c:cb:c8:7d:9b:
         29:04:72:9c:05:53:d0:6e:db:ca:54:49:06:5f:8c:b9:23:c7:
         d8:c3:9a:b5:49:2f:93:c5:fb:dc:99:2c:6e:71:ed:19:5b:8a:
         6b:d7:7e:88:9f:b5:6f:a8:18:a1:3b:5f:49:ab:a7:5b:88:55:
         21:26:a5:23:3f:b2:5d:67:ad:1d:be:a0:af:0f:fa:0e:9c:c9:
         28:6b:50:42:95:b9:bd:b1:e4:35:dc:7d:24:22:d2:51:b0:c5:
         91:dc:47:cc:2b:36:66:60:fc:b5:73:5c:17:26:97:f3:bb:7c:
         67:2e:bb:18
-----BEGIN CERTIFICATE-----
MIIDWTCCAkGgAwIBAgIQaMnE4XPFIHFlH+ycxWKihzANBgkqhkiG9w0BAQsFADAZ
MRcwFQYDVQQDDA5rb3Bpa29uZmlnLmNvbTAeFw0yMTAyMDMwNTQ4NTdaFw0yNDAx
MTkwNTQ4NTdaMBAxDjAMBgNVBAMMBXJlc3BpMIIBIjANBgkqhkiG9w0BAQEFAAOC
AQ8AMIIBCgKCAQEApW4vmOqJ5HnqrIf44DmVg5RQtOpvS/3MOwi55mb3SWd2kADJ
fNh9c70zr0Erh9hAkQUykh9oGlpHX1t/Pqt6mgfBE9tKUtyYpzIQixXyNxOk34oD
yxHWLk+lHAvj+p8ARi/XUtqNDTgSc8PF/OlPXaIP/D1YbKyOeIVgFF2EwbEDCozv
f53FckzZEzrQTZ957P0W4CdaSvgjaKriCzxG1Thww5vTwPP40U/3dWpdj66kA6qH
uRJbJ1lj2Rwx+3BkhWjnpPXdyP/2CaQ5TT44+Lgsnzfl3jXq2p+NpJmtsj4cJBhK
3SgXRDl46lgqOxGEfcQr1jnktrjb/6hD3t1MrQIDAQABo4GlMIGiMAkGA1UdEwQC
MAAwHQYDVR0OBBYEFLFAT4NsbQD01Ffib+TEyz8TrHvBMFQGA1UdIwRNMEuAFEzh
TrZk19JyGcKuTddUr/+srhI/oR2kGzAZMRcwFQYDVQQDDA5rb3Bpa29uZmlnLmNv
bYIUZfhgr2FGzaPjxwYUXhIGq7ef0zYwEwYDVR0lBAwwCgYIKwYBBQUHAwIwCwYD
VR0PBAQDAgeAMA0GCSqGSIb3DQEBCwUAA4IBAQAH4afd9ROJFHKU6Mapm/yk5wCl
7dtH+nZC68N27hkv0xpAZ2mqJcMWGIux3GvsbZ0LNRc2bzXJqxhfJHy3bfcbgosI
vZ0TEljf6JKTqs+fZ8tcFgAH0oyIRlEwZmHEuJOkeXroDE75gqEgBZjEMZybKmU5
N2tGJgbllvhw9GQU1pPu2pzxeJNMWW+4XMvIfZspBHKcBVPQbtvKVEkGX4y5I8fY
w5q1SS+TxfvcmSxuce0ZW4pr136In7VvqBihO19Jq6dbiFUhJqUjP7JdZ60dvqCv
D/oOnMkoa1BClbm9seQ13H0kItJRsMWR3EfMKzZmYPy1c1wXJpfzu3xnLrsY
-----END CERTIFICATE-----
