Certificate:
    Data:
        Version: 3 (0x2)
        Serial Number:
            9e:fe:12:9f:cd:66:de:f3:ef:37:c3:e5:28:75:38:1f
        Signature Algorithm: ecdsa-with-SHA256
        Issuer: CN=ChangeMe
        Validity
            Not Before: Feb  3 06:00:34 2021 GMT
            Not After : Jan 19 06:00:34 2024 GMT
        Subject: CN=jajal
        Subject Public Key Info:
            Public Key Algorithm: id-ecPublicKey
                Public-Key: (256 bit)
                pub:
                    04:06:c0:da:88:18:ce:a2:51:17:bc:bf:ec:df:f0:
                    bb:64:60:66:ad:9c:04:25:00:c8:6d:06:ee:d8:df:
                    b4:a1:12:db:22:32:0b:d2:5d:e6:e7:96:93:26:79:
                    2e:c2:7a:32:0f:b6:4e:7e:b9:80:f8:c4:e9:f9:4b:
                    5c:86:be:68:01
                ASN1 OID: prime256v1
                NIST CURVE: P-256
        X509v3 extensions:
            X509v3 Basic Constraints: 
                CA:FALSE
            X509v3 Subject Key Identifier: 
                C1:F8:BD:22:E0:25:C7:F1:4B:08:BB:CE:32:1B:76:99:DF:B8:1F:97
            X509v3 Authority Key Identifier: 
                keyid:A4:46:2C:27:CB:FD:95:F6:1E:84:5F:B9:08:DE:83:D0:DD:F4:63:4A
                DirName:/CN=ChangeMe
                serial:39:49:ED:10:49:FC:38:DD:2F:49:71:C3:96:B6:B7:23:36:37:DE:87

            X509v3 Extended Key Usage: 
                TLS Web Client Authentication
            X509v3 Key Usage: 
                Digital Signature
    Signature Algorithm: ecdsa-with-SHA256
         30:45:02:21:00:f5:59:5a:69:b8:1a:93:ca:25:64:cb:91:30:
         fc:bf:ee:7e:73:ed:36:6c:69:9b:da:be:4b:63:3b:3b:26:9f:
         c5:02:20:52:17:47:b5:5f:8c:7a:9a:de:c6:f6:19:d4:b6:b0:
         22:9d:b8:ff:ea:89:3d:83:cf:60:56:95:8c:e6:66:f0:cd
-----BEGIN CERTIFICATE-----
MIIBwjCCAWigAwIBAgIRAJ7+Ep/NZt7z7zfD5Sh1OB8wCgYIKoZIzj0EAwIwEzER
MA8GA1UEAwwIQ2hhbmdlTWUwHhcNMjEwMjAzMDYwMDM0WhcNMjQwMTE5MDYwMDM0
WjAQMQ4wDAYDVQQDDAVqYWphbDBZMBMGByqGSM49AgEGCCqGSM49AwEHA0IABAbA
2ogYzqJRF7y/7N/wu2RgZq2cBCUAyG0G7tjftKES2yIyC9Jd5ueWkyZ5LsJ6Mg+2
Tn65gPjE6flLXIa+aAGjgZ8wgZwwCQYDVR0TBAIwADAdBgNVHQ4EFgQUwfi9IuAl
x/FLCLvOMht2md+4H5cwTgYDVR0jBEcwRYAUpEYsJ8v9lfYehF+5CN6D0N30Y0qh
F6QVMBMxETAPBgNVBAMMCENoYW5nZU1lghQ5Se0QSfw43S9JccOWtrcjNjfehzAT
BgNVHSUEDDAKBggrBgEFBQcDAjALBgNVHQ8EBAMCB4AwCgYIKoZIzj0EAwIDSAAw
RQIhAPVZWmm4GpPKJWTLkTD8v+5+c+02bGmb2r5LYzs7Jp/FAiBSF0e1X4x6mt7G
9hnUtrAinbj/6ok9g89gVpWM5mbwzQ==
-----END CERTIFICATE-----
