Certificate:
    Data:
        Version: 3 (0x2)
        Serial Number:
            ad:51:db:0d:60:c3:e9:71:88:0e:0d:f7:7a:e6:78:4d
        Signature Algorithm: ecdsa-with-SHA256
        Issuer: CN=ChangeMe
        Validity
            Not Before: Feb  3 01:13:18 2021 GMT
            Not After : Jan 19 01:13:18 2024 GMT
        Subject: CN=sandiko
        Subject Public Key Info:
            Public Key Algorithm: id-ecPublicKey
                Public-Key: (256 bit)
                pub:
                    04:24:eb:1b:e1:a3:61:23:e9:0a:7b:56:bf:50:9e:
                    77:28:af:92:26:3c:36:eb:17:0e:b4:f5:28:f1:e5:
                    86:05:8a:b1:e1:8c:49:4a:a3:f6:c9:92:bc:b9:7a:
                    35:69:7c:4f:61:ca:6e:dd:b2:8d:aa:64:7a:7c:8c:
                    cb:91:04:20:da
                ASN1 OID: prime256v1
                NIST CURVE: P-256
        X509v3 extensions:
            X509v3 Basic Constraints: 
                CA:FALSE
            X509v3 Subject Key Identifier: 
                A0:D8:2E:82:0E:8F:7A:B4:DF:E1:C0:A1:91:CE:D7:30:C8:70:64:B3
            X509v3 Authority Key Identifier: 
                keyid:A4:46:2C:27:CB:FD:95:F6:1E:84:5F:B9:08:DE:83:D0:DD:F4:63:4A
                DirName:/CN=ChangeMe
                serial:39:49:ED:10:49:FC:38:DD:2F:49:71:C3:96:B6:B7:23:36:37:DE:87

            X509v3 Extended Key Usage: 
                TLS Web Client Authentication
            X509v3 Key Usage: 
                Digital Signature
    Signature Algorithm: ecdsa-with-SHA256
         30:45:02:20:43:90:22:af:71:dc:35:be:ed:4e:31:5d:29:82:
         87:41:a3:7f:d8:93:43:65:42:62:d8:91:35:b0:19:de:5c:c8:
         02:21:00:d0:f6:97:b3:c7:69:9b:03:82:ca:35:ab:d6:ba:d8:
         85:48:b7:3c:68:79:7b:70:e6:17:f6:a1:92:32:79:a7:a2
-----BEGIN CERTIFICATE-----
MIIBxDCCAWqgAwIBAgIRAK1R2w1gw+lxiA4N93rmeE0wCgYIKoZIzj0EAwIwEzER
MA8GA1UEAwwIQ2hhbmdlTWUwHhcNMjEwMjAzMDExMzE4WhcNMjQwMTE5MDExMzE4
WjASMRAwDgYDVQQDDAdzYW5kaWtvMFkwEwYHKoZIzj0CAQYIKoZIzj0DAQcDQgAE
JOsb4aNhI+kKe1a/UJ53KK+SJjw26xcOtPUo8eWGBYqx4YxJSqP2yZK8uXo1aXxP
Ycpu3bKNqmR6fIzLkQQg2qOBnzCBnDAJBgNVHRMEAjAAMB0GA1UdDgQWBBSg2C6C
Do96tN/hwKGRztcwyHBkszBOBgNVHSMERzBFgBSkRiwny/2V9h6EX7kI3oPQ3fRj
SqEXpBUwEzERMA8GA1UEAwwIQ2hhbmdlTWWCFDlJ7RBJ/DjdL0lxw5a2tyM2N96H
MBMGA1UdJQQMMAoGCCsGAQUFBwMCMAsGA1UdDwQEAwIHgDAKBggqhkjOPQQDAgNI
ADBFAiBDkCKvcdw1vu1OMV0pgodBo3/Yk0NlQmLYkTWwGd5cyAIhAND2l7PHaZsD
gso1q9a62IVItzxoeXtw5hf2oZIyeaei
-----END CERTIFICATE-----
