Certificate:
    Data:
        Version: 3 (0x2)
        Serial Number:
            e1:cf:55:e7:99:47:14:f4:e0:37:3b:ba:d2:e2:3f:f2
        Signature Algorithm: ecdsa-with-SHA256
        Issuer: CN=ChangeMe
        Validity
            Not Before: Feb  3 01:11:54 2021 GMT
            Not After : Feb  1 01:11:54 2031 GMT
        Subject: CN=server_1aec99a3-45cf-4daf-a641-1fe9488eb5e0
        Subject Public Key Info:
            Public Key Algorithm: id-ecPublicKey
                Public-Key: (256 bit)
                pub:
                    04:03:72:d8:11:89:08:97:60:4b:57:b3:cd:e9:45:
                    22:43:49:91:78:ef:57:cb:69:23:0d:1c:07:55:80:
                    ea:cb:ad:80:96:26:b0:a2:5d:e2:df:65:21:71:aa:
                    1b:c3:69:29:fa:91:cd:17:a0:d7:f9:56:ae:ea:f3:
                    79:c5:c4:3b:e8
                ASN1 OID: prime256v1
                NIST CURVE: P-256
        X509v3 extensions:
            X509v3 Basic Constraints: 
                CA:FALSE
            X509v3 Subject Key Identifier: 
                3B:C6:93:82:2C:D7:6C:86:9E:F3:5E:FA:03:37:91:BC:94:FF:D6:1A
            X509v3 Authority Key Identifier: 
                keyid:A4:46:2C:27:CB:FD:95:F6:1E:84:5F:B9:08:DE:83:D0:DD:F4:63:4A
                DirName:/CN=ChangeMe
                serial:39:49:ED:10:49:FC:38:DD:2F:49:71:C3:96:B6:B7:23:36:37:DE:87

            X509v3 Extended Key Usage: 
                TLS Web Server Authentication
            X509v3 Key Usage: 
                Digital Signature, Key Encipherment
            X509v3 Subject Alternative Name: 
                DNS:server_1aec99a3-45cf-4daf-a641-1fe9488eb5e0
    Signature Algorithm: ecdsa-with-SHA256
         30:45:02:21:00:f1:58:8a:f0:a5:d9:c6:83:4e:53:4b:62:2b:
         82:38:62:7f:d5:1e:50:26:e9:9d:1b:3d:bd:5c:3f:62:03:f1:
         2f:02:20:73:9d:c8:86:6d:8c:e9:cb:37:1f:3a:46:44:be:7a:
         63:5f:c9:bc:c2:a9:7f:3b:1f:91:4e:ca:1d:7f:71:33:c9
-----BEGIN CERTIFICATE-----
MIICIDCCAcagAwIBAgIRAOHPVeeZRxT04Dc7utLiP/IwCgYIKoZIzj0EAwIwEzER
MA8GA1UEAwwIQ2hhbmdlTWUwHhcNMjEwMjAzMDExMTU0WhcNMzEwMjAxMDExMTU0
WjA2MTQwMgYDVQQDDCtzZXJ2ZXJfMWFlYzk5YTMtNDVjZi00ZGFmLWE2NDEtMWZl
OTQ4OGViNWUwMFkwEwYHKoZIzj0CAQYIKoZIzj0DAQcDQgAEA3LYEYkIl2BLV7PN
6UUiQ0mReO9Xy2kjDRwHVYDqy62Aliawol3i32Uhcaobw2kp+pHNF6DX+Vau6vN5
xcQ76KOB1zCB1DAJBgNVHRMEAjAAMB0GA1UdDgQWBBQ7xpOCLNdshp7zXvoDN5G8
lP/WGjBOBgNVHSMERzBFgBSkRiwny/2V9h6EX7kI3oPQ3fRjSqEXpBUwEzERMA8G
A1UEAwwIQ2hhbmdlTWWCFDlJ7RBJ/DjdL0lxw5a2tyM2N96HMBMGA1UdJQQMMAoG
CCsGAQUFBwMBMAsGA1UdDwQEAwIFoDA2BgNVHREELzAtgitzZXJ2ZXJfMWFlYzk5
YTMtNDVjZi00ZGFmLWE2NDEtMWZlOTQ4OGViNWUwMAoGCCqGSM49BAMCA0gAMEUC
IQDxWIrwpdnGg05TS2Irgjhif9UeUCbpnRs9vVw/YgPxLwIgc53Ihm2M6cs3HzpG
RL56Y1/JvMKpfzsfkU7KHX9xM8k=
-----END CERTIFICATE-----
