Certificate:
    Data:
        Version: 3 (0x2)
        Serial Number:
            5f:d8:89:e8:f1:e0:bd:fc:c5:9e:42:39:75:d2:a3:28
        Signature Algorithm: sha256WithRSAEncryption
        Issuer: CN=ChangeMe
        Validity
            Not Before: Feb  3 06:54:17 2021 GMT
            Not After : Feb  1 06:54:17 2031 GMT
        Subject: CN=server
        Subject Public Key Info:
            Public Key Algorithm: rsaEncryption
                RSA Public-Key: (2048 bit)
                Modulus:
                    00:c4:b1:8e:e0:cb:53:f6:4b:51:ec:ae:56:3a:d3:
                    8c:0a:b1:a7:0a:db:bf:27:43:1c:ee:9a:fb:1f:2a:
                    05:d7:53:26:a9:7a:3b:78:ee:cc:67:cf:be:92:40:
                    4e:4c:c8:01:1f:d1:01:78:d9:24:fe:7c:7f:01:b5:
                    58:d8:bc:4b:f2:ff:85:d0:30:a3:bc:79:c5:f2:49:
                    25:cc:53:11:82:76:9c:ab:08:ff:09:d5:85:9d:ce:
                    4f:0e:d9:b8:c1:8e:14:6c:50:8c:dc:9d:5e:d4:cb:
                    24:74:c4:62:0d:3d:b7:59:f0:4e:b0:ee:1f:42:25:
                    24:2c:22:4c:ba:58:01:f1:7f:26:80:2f:fd:e4:6e:
                    48:96:e0:56:21:63:08:a1:b1:24:ac:58:9f:96:8f:
                    66:0a:3e:e3:55:6d:55:f5:3e:79:46:b3:04:88:2c:
                    99:c9:e0:1b:85:86:34:42:9e:66:5e:15:02:93:57:
                    17:99:e1:46:3e:ac:e6:c8:a5:7e:33:1e:86:1e:5d:
                    77:e4:c7:6d:92:7b:eb:32:50:cc:9e:bc:78:90:36:
                    22:25:b6:a5:cb:2c:6d:d1:1d:07:c8:a6:73:a1:cc:
                    fa:ce:11:07:88:f1:76:74:eb:8c:37:51:81:3f:eb:
                    3d:42:82:e9:0a:6d:71:41:24:84:45:9d:a1:df:bb:
                    61:5d
                Exponent: 65537 (0x10001)
        X509v3 extensions:
            X509v3 Basic Constraints: 
                CA:FALSE
            X509v3 Subject Key Identifier: 
                FA:9B:EB:99:5E:9D:C5:85:F4:69:DD:AF:49:26:8E:65:0C:B4:2B:A1
            X509v3 Authority Key Identifier: 
                keyid:8E:B3:7B:A1:40:8F:DB:8B:6C:7B:65:95:F2:24:3F:B5:C1:4F:4C:88
                DirName:/CN=ChangeMe
                serial:20:FB:DD:E6:15:4F:E3:1A:8F:9C:E9:81:05:E4:E6:72:54:7A:7B:60

            X509v3 Extended Key Usage: 
                TLS Web Server Authentication
            X509v3 Key Usage: 
                Digital Signature, Key Encipherment
            X509v3 Subject Alternative Name: 
                DNS:server
    Signature Algorithm: sha256WithRSAEncryption
         73:4f:61:14:79:39:33:ef:fc:58:ef:cb:b2:39:bd:3f:ec:12:
         7f:5e:00:b8:51:d4:3f:15:a4:3a:e6:6c:6a:71:c6:80:48:a1:
         36:c2:c5:05:ff:60:e6:aa:0b:88:8c:13:29:c2:fe:00:a1:33:
         e3:23:93:56:e9:d0:64:87:9e:27:84:d2:3b:3f:d5:de:c7:73:
         d9:cb:3f:9a:b7:bd:e9:3c:8e:9d:60:cf:50:db:cf:5d:e5:35:
         95:a8:ea:9b:02:05:6e:05:4e:d9:d1:4e:9e:9c:a6:e8:d1:12:
         15:59:c3:b7:b1:97:2d:35:61:3d:0e:c8:29:40:95:8f:f7:c0:
         fe:b9:1b:a7:2f:ad:eb:fc:ba:ac:36:86:2e:87:fd:48:3c:96:
         50:f9:db:e0:5a:dc:72:77:6d:3d:12:b4:56:e8:5a:8d:d4:9d:
         29:0b:68:2a:d6:a7:68:93:51:15:da:5f:97:7a:01:67:64:6e:
         cb:7b:44:ba:45:e5:07:f0:b8:ba:61:07:f0:75:6b:ff:fa:04:
         a7:f5:b0:57:3e:17:ad:53:a7:3a:6d:55:7c:ae:03:07:67:cb:
         b1:ad:ef:b2:f9:63:05:15:64:8a:3e:cc:ae:89:0f:18:a3:59:
         41:e9:e4:ee:af:76:0a:38:a5:91:1a:15:41:43:87:4d:e3:6b:
         c0:49:50:0f
-----BEGIN CERTIFICATE-----
MIIDYTCCAkmgAwIBAgIQX9iJ6PHgvfzFnkI5ddKjKDANBgkqhkiG9w0BAQsFADAT
MREwDwYDVQQDDAhDaGFuZ2VNZTAeFw0yMTAyMDMwNjU0MTdaFw0zMTAyMDEwNjU0
MTdaMBExDzANBgNVBAMMBnNlcnZlcjCCASIwDQYJKoZIhvcNAQEBBQADggEPADCC
AQoCggEBAMSxjuDLU/ZLUeyuVjrTjAqxpwrbvydDHO6a+x8qBddTJql6O3juzGfP
vpJATkzIAR/RAXjZJP58fwG1WNi8S/L/hdAwo7x5xfJJJcxTEYJ2nKsI/wnVhZ3O
Tw7ZuMGOFGxQjNydXtTLJHTEYg09t1nwTrDuH0IlJCwiTLpYAfF/JoAv/eRuSJbg
ViFjCKGxJKxYn5aPZgo+41VtVfU+eUazBIgsmcngG4WGNEKeZl4VApNXF5nhRj6s
5silfjMehh5dd+THbZJ76zJQzJ68eJA2IiW2pcssbdEdB8imc6HM+s4RB4jxdnTr
jDdRgT/rPUKC6QptcUEkhEWdod+7YV0CAwEAAaOBsjCBrzAJBgNVHRMEAjAAMB0G
A1UdDgQWBBT6m+uZXp3FhfRp3a9JJo5lDLQroTBOBgNVHSMERzBFgBSOs3uhQI/b
i2x7ZZXyJD+1wU9MiKEXpBUwEzERMA8GA1UEAwwIQ2hhbmdlTWWCFCD73eYVT+Ma
j5zpgQXk5nJUentgMBMGA1UdJQQMMAoGCCsGAQUFBwMBMAsGA1UdDwQEAwIFoDAR
BgNVHREECjAIggZzZXJ2ZXIwDQYJKoZIhvcNAQELBQADggEBAHNPYRR5OTPv/Fjv
y7I5vT/sEn9eALhR1D8VpDrmbGpxxoBIoTbCxQX/YOaqC4iMEynC/gChM+Mjk1bp
0GSHnieE0js/1d7Hc9nLP5q3vek8jp1gz1Dbz13lNZWo6psCBW4FTtnRTp6cpujR
EhVZw7exly01YT0OyClAlY/3wP65G6cvrev8uqw2hi6H/Ug8llD52+Ba3HJ3bT0S
tFboWo3UnSkLaCrWp2iTURXaX5d6AWdkbst7RLpF5QfwuLphB/B1a//6BKf1sFc+
F61TpzptVXyuAwdny7Gt77L5YwUVZIo+zK6JDxijWUHp5O6vdgo4pZEaFUFDh03j
a8BJUA8=
-----END CERTIFICATE-----
